target datalayout = "e-m:e-p270:32:32-p271:32:32-p272:64:64-i64:64-i128:128-f80:128-n8:16:32:64-S128"
target triple = "x86_64-pc-linux-gnu"

; Function Attrs: nounwind uwtable
define ptr @Dau_DsdNormalizeCopy(ptr noundef %0, ptr noundef %1, ptr noundef %2, i32 noundef %3) #0 {
  %5 = alloca ptr, align 8
  %6 = alloca ptr, align 8
  %7 = alloca ptr, align 8
  %8 = alloca i32, align 4
  %9 = alloca i32, align 4
  store ptr %0, ptr %5, align 8, !tbaa !3
  store ptr %1, ptr %6, align 8, !tbaa !3
  store ptr %2, ptr %7, align 8, !tbaa !14
  store i32 %3, ptr %8, align 4, !tbaa !8
  call void @llvm.lifetime.start.p0(i64 4, ptr %9) #9
  %10 = load ptr, ptr %7, align 8, !tbaa !14
  %11 = load i32, ptr %8, align 4, !tbaa !8
  %12 = sext i32 %11 to i64
  %13 = getelementptr inbounds i32, ptr %10, i64 %12
  %14 = load i32, ptr %13, align 4, !tbaa !8
  store i32 %14, ptr %9, align 4, !tbaa !8
  br label %15

15:                                               ; preds = %32, %4
  %16 = load i32, ptr %9, align 4, !tbaa !8
  %17 = load ptr, ptr %7, align 8, !tbaa !14
  %18 = load i32, ptr %8, align 4, !tbaa !8
  %19 = add nsw i32 %18, 1
  %20 = sext i32 %19 to i64
  %21 = getelementptr inbounds i32, ptr %17, i64 %20
  %22 = load i32, ptr %21, align 4, !tbaa !8
  %23 = icmp slt i32 %16, %22
  br i1 %23, label %24, label %35

24:                                               ; preds = %15
  %25 = load ptr, ptr %6, align 8, !tbaa !3
  %26 = load i32, ptr %9, align 4, !tbaa !8
  %27 = sext i32 %26 to i64
  %28 = getelementptr inbounds i8, ptr %25, i64 %27
  %29 = load i8, ptr %28, align 1, !tbaa !10
  %30 = load ptr, ptr %5, align 8, !tbaa !3
  %31 = getelementptr inbounds nuw i8, ptr %30, i32 1
  store ptr %31, ptr %5, align 8, !tbaa !3
  store i8 %29, ptr %30, align 1, !tbaa !10
  br label %32

32:                                               ; preds = %24
  %33 = load i32, ptr %9, align 4, !tbaa !8
  %34 = add nsw i32 %33, 1
  store i32 %34, ptr %9, align 4, !tbaa !8
  br label %15, !llvm.loop !19

35:                                               ; preds = %15
  %36 = load ptr, ptr %5, align 8, !tbaa !3
  call void @llvm.lifetime.end.p0(i64 4, ptr %9) #9
  ret ptr %36
}