; Function Attrs: nofree norecurse nosync nounwind memory(argmem: readwrite) uwtable
define ptr @Dau_DsdNormalizeCopy(ptr noundef writeonly %0, ptr noundef readonly captures(none) %1, ptr noundef readonly captures(none) %2, i32 noundef %3) local_unnamed_addr #5 {
  %5 = sext i32 %3 to i64
  %6 = getelementptr inbounds i32, ptr %2, i64 %5
  %7 = load i32, ptr %6, align 4, !tbaa !6
  %8 = getelementptr i8, ptr %6, i64 4
  %9 = load i32, ptr %8, align 4, !tbaa !6
  %10 = icmp slt i32 %7, %9
  br i1 %10, label %.lr.ph.preheader, label %._crit_edge

.lr.ph.preheader:                                 ; preds = %4
  %11 = sext i32 %7 to i64
  br label %.lr.ph

.lr.ph:                                           ; preds = %.lr.ph.preheader, %.lr.ph
  %indvars.iv = phi i64 [ %11, %.lr.ph.preheader ], [ %indvars.iv.next, %.lr.ph ]
  %.0910 = phi ptr [ %0, %.lr.ph.preheader ], [ %14, %.lr.ph ]
  %12 = getelementptr inbounds i8, ptr %1, i64 %indvars.iv
  %13 = load i8, ptr %12, align 1, !tbaa !3
  %14 = getelementptr inbounds nuw i8, ptr %.0910, i64 1
  store i8 %13, ptr %.0910, align 1, !tbaa !3
  %indvars.iv.next = add nsw i64 %indvars.iv, 1
  %15 = load i32, ptr %8, align 4, !tbaa !6
  %16 = sext i32 %15 to i64
  %17 = icmp slt i64 %indvars.iv.next, %16
  br i1 %17, label %.lr.ph, label %._crit_edge, !llvm.loop !14

._crit_edge:                                      ; preds = %.lr.ph, %4
  %.09.lcssa = phi ptr [ %0, %4 ], [ %14, %.lr.ph ]
  ret ptr %.09.lcssa
}